; Function Attrs: nounwind uwtable
define range(i32 -1, 1) i32 @evhttp_uri_set_path(ptr noundef captures(none) %0, ptr noundef %1) local_unnamed_addr #0 {
  %.not = icmp eq ptr %1, null
  br i1 %.not, label %8, label %3

3:                                                ; preds = %2
  %4 = load i32, ptr %0, align 8
  %5 = tail call fastcc ptr @end_of_path(ptr noundef %1, i32 noundef 0, i32 noundef %4)
  %6 = tail call i64 @strlen(ptr noundef nonnull dereferenceable(1) %1) #17
  %7 = getelementptr inbounds nuw i8, ptr %1, i64 %6
  %.not13 = icmp eq ptr %5, %7
  br i1 %.not13, label %8, label %18

8:                                                ; preds = %2, %3
  %9 = getelementptr inbounds nuw i8, ptr %0, i64 48
  %10 = load ptr, ptr %9, align 8
  %.not14 = icmp eq ptr %10, null
  br i1 %.not14, label %12, label %11

11:                                               ; preds = %8
  tail call void @event_mm_free_(ptr noundef nonnull %10) #18
  br label %12

12:                                               ; preds = %11, %8
  br i1 %.not, label %17, label %13

13:                                               ; preds = %12
  %14 = tail call ptr @event_mm_strdup_(ptr noundef nonnull %1) #18
  store ptr %14, ptr %9, align 8
  %15 = icmp eq ptr %14, null
  br i1 %15, label %16, label %18

16:                                               ; preds = %13
  tail call void (ptr, ...) @event_warn(ptr noundef nonnull @.str.46, ptr noundef nonnull @__func__.evhttp_uri_set_path) #18
  br label %18

17:                                               ; preds = %12
  store ptr null, ptr %9, align 8
  br label %18

18:                                               ; preds = %13, %17, %3, %16
  %.0 = phi i32 [ -1, %16 ], [ -1, %3 ], [ 0, %17 ], [ 0, %13 ]
  ret i32 %.0
}